; Function Attrs: nounwind uwtable
define dso_local range(i32 -30, 1) i32 @archive_match_free(ptr noundef %0) local_unnamed_addr #0 {
  %2 = icmp eq ptr %0, null
  br i1 %2, label %26, label %3

3:                                                ; preds = %1
  %4 = tail call i32 @__archive_check_magic(ptr noundef nonnull %0, i32 noundef 212668873, i32 noundef 65535, ptr noundef nonnull @.str) #14
  %.not = icmp eq i32 %4, -30
  br i1 %.not, label %26, label %5

5:                                                ; preds = %3
  %6 = getelementptr inbounds nuw i8, ptr %0, i64 192
  %.val = load ptr, ptr %6, align 8, !tbaa !33
  %.not1.i = icmp eq ptr %.val, null
  br i1 %.not1.i, label %match_list_free.exit, label %.lr.ph.i

.lr.ph.i:                                         ; preds = %5, %.lr.ph.i
  %.02.i = phi ptr [ %7, %.lr.ph.i ], [ %.val, %5 ]
  %7 = load ptr, ptr %.02.i, align 8, !tbaa !35
  %8 = getelementptr inbounds nuw i8, ptr %.02.i, i64 16
  tail call void @archive_mstring_clean(ptr noundef nonnull %8) #14
  tail call void @free(ptr noundef nonnull %.02.i) #14
  %.not.i = icmp eq ptr %7, null
  br i1 %.not.i, label %match_list_free.exit, label %.lr.ph.i, !llvm.loop !40

match_list_free.exit:                             ; preds = %.lr.ph.i, %5
  %9 = getelementptr inbounds nuw i8, ptr %0, i64 152
  %.val15 = load ptr, ptr %9, align 8, !tbaa !33
  %.not1.i19 = icmp eq ptr %.val15, null
  br i1 %.not1.i19, label %match_list_free.exit23, label %.lr.ph.i20

.lr.ph.i20:                                       ; preds = %match_list_free.exit, %.lr.ph.i20
  %.02.i21 = phi ptr [ %10, %.lr.ph.i20 ], [ %.val15, %match_list_free.exit ]
  %10 = load ptr, ptr %.02.i21, align 8, !tbaa !35
  %11 = getelementptr inbounds nuw i8, ptr %.02.i21, i64 16
  tail call void @archive_mstring_clean(ptr noundef nonnull %11) #14
  tail call void @free(ptr noundef nonnull %.02.i21) #14
  %.not.i22 = icmp eq ptr %10, null
  br i1 %.not.i22, label %match_list_free.exit23, label %.lr.ph.i20, !llvm.loop !40

match_list_free.exit23:                           ; preds = %.lr.ph.i20, %match_list_free.exit
  %12 = getelementptr inbounds nuw i8, ptr %0, i64 352
  %.val18 = load ptr, ptr %12, align 8, !tbaa !30
  %.not1.i24 = icmp eq ptr %.val18, null
  br i1 %.not1.i24, label %entry_list_free.exit, label %.lr.ph.i25

.lr.ph.i25:                                       ; preds = %match_list_free.exit23, %.lr.ph.i25
  %.02.i26 = phi ptr [ %14, %.lr.ph.i25 ], [ %.val18, %match_list_free.exit23 ]
  %13 = getelementptr inbounds nuw i8, ptr %.02.i26, i64 24
  %14 = load ptr, ptr %13, align 8, !tbaa !42
  %15 = getelementptr inbounds nuw i8, ptr %.02.i26, i64 32
  tail call void @archive_mstring_clean(ptr noundef nonnull %15) #14
  tail call void @free(ptr noundef nonnull %.02.i26) #14
  %.not.i27 = icmp eq ptr %14, null
  br i1 %.not.i27, label %entry_list_free.exit, label %.lr.ph.i25, !llvm.loop !45

entry_list_free.exit:                             ; preds = %.lr.ph.i25, %match_list_free.exit23
  %16 = getelementptr inbounds nuw i8, ptr %0, i64 392
  %17 = load ptr, ptr %16, align 8, !tbaa !46
  tail call void @free(ptr noundef %17) #14
  %18 = getelementptr inbounds nuw i8, ptr %0, i64 416
  %19 = load ptr, ptr %18, align 8, !tbaa !47
  tail call void @free(ptr noundef %19) #14
  %20 = getelementptr inbounds nuw i8, ptr %0, i64 424
  %.val16 = load ptr, ptr %20, align 8, !tbaa !33
  %.not1.i28 = icmp eq ptr %.val16, null
  br i1 %.not1.i28, label %match_list_free.exit32, label %.lr.ph.i29

.lr.ph.i29:                                       ; preds = %entry_list_free.exit, %.lr.ph.i29
  %.02.i30 = phi ptr [ %21, %.lr.ph.i29 ], [ %.val16, %entry_list_free.exit ]
  %21 = load ptr, ptr %.02.i30, align 8, !tbaa !35
  %22 = getelementptr inbounds nuw i8, ptr %.02.i30, i64 16
  tail call void @archive_mstring_clean(ptr noundef nonnull %22) #14
  tail call void @free(ptr noundef nonnull %.02.i30) #14
  %.not.i31 = icmp eq ptr %21, null
  br i1 %.not.i31, label %match_list_free.exit32, label %.lr.ph.i29, !llvm.loop !40

match_list_free.exit32:                           ; preds = %.lr.ph.i29, %entry_list_free.exit
  %23 = getelementptr inbounds nuw i8, ptr %0, i64 464
  %.val17 = load ptr, ptr %23, align 8, !tbaa !33
  %.not1.i33 = icmp eq ptr %.val17, null
  br i1 %.not1.i33, label %match_list_free.exit37, label %.lr.ph.i34

.lr.ph.i34:                                       ; preds = %match_list_free.exit32, %.lr.ph.i34
  %.02.i35 = phi ptr [ %24, %.lr.ph.i34 ], [ %.val17, %match_list_free.exit32 ]
  %24 = load ptr, ptr %.02.i35, align 8, !tbaa !35
  %25 = getelementptr inbounds nuw i8, ptr %.02.i35, i64 16
  tail call void @archive_mstring_clean(ptr noundef nonnull %25) #14
  tail call void @free(ptr noundef nonnull %.02.i35) #14
  %.not.i36 = icmp eq ptr %24, null
  br i1 %.not.i36, label %match_list_free.exit37, label %.lr.ph.i34, !llvm.loop !40

match_list_free.exit37:                           ; preds = %.lr.ph.i34, %match_list_free.exit32
  tail call void @free(ptr noundef %0) #14
  br label %26

26:                                               ; preds = %1, %3, %match_list_free.exit37
  %.0 = phi i32 [ 0, %match_list_free.exit37 ], [ -30, %3 ], [ 0, %1 ]
  ret i32 %.0
}